; Function Attrs: mustprogress nounwind uwtable
define internal fastcc void @_ZNSt6vectorISt10unique_ptrI9avifImageN2cv12_GLOBAL__N_116AvifImageDeleterEESaIS5_EED2Ev(ptr noundef nonnull readonly align 8 captures(none) dereferenceable(24) %0) unnamed_addr #5 align 2 personality ptr @__gxx_personality_v0 {
  %2 = load ptr, ptr %0, align 8, !tbaa !190
  %3 = getelementptr inbounds nuw i8, ptr %0, i64 8
  %4 = load ptr, ptr %3, align 8, !tbaa !171
  %.not4.i.i.i = icmp eq ptr %2, %4
  br i1 %.not4.i.i.i, label %_ZSt8_DestroyIPSt10unique_ptrI9avifImageN2cv12_GLOBAL__N_116AvifImageDeleterEES5_EvT_S7_RSaIT0_E.exit, label %.lr.ph.i.i.i

.lr.ph.i.i.i:                                     ; preds = %1, %_ZSt8_DestroyISt10unique_ptrI9avifImageN2cv12_GLOBAL__N_116AvifImageDeleterEEEvPT_.exit.i.i.i
  %.05.i.i.i = phi ptr [ %10, %_ZSt8_DestroyISt10unique_ptrI9avifImageN2cv12_GLOBAL__N_116AvifImageDeleterEEEvPT_.exit.i.i.i ], [ %2, %1 ]
  %5 = load ptr, ptr %.05.i.i.i, align 8, !tbaa !170
  %.not.i.i.i.i.i = icmp eq ptr %5, null
  br i1 %.not.i.i.i.i.i, label %_ZSt8_DestroyISt10unique_ptrI9avifImageN2cv12_GLOBAL__N_116AvifImageDeleterEEEvPT_.exit.i.i.i, label %6

6:                                                ; preds = %.lr.ph.i.i.i
  invoke void @avifImageDestroy(ptr noundef nonnull %5)
          to label %_ZSt8_DestroyISt10unique_ptrI9avifImageN2cv12_GLOBAL__N_116AvifImageDeleterEEEvPT_.exit.i.i.i unwind label %7

7:                                                ; preds = %6
  %8 = landingpad { ptr, i32 }
          catch ptr null
  %9 = extractvalue { ptr, i32 } %8, 0
  tail call void @__clang_call_terminate(ptr %9) #21
  unreachable

_ZSt8_DestroyISt10unique_ptrI9avifImageN2cv12_GLOBAL__N_116AvifImageDeleterEEEvPT_.exit.i.i.i: ; preds = %6, %.lr.ph.i.i.i
  store ptr null, ptr %.05.i.i.i, align 8, !tbaa !170
  %10 = getelementptr inbounds nuw i8, ptr %.05.i.i.i, i64 8
  %.not.i.i.i = icmp eq ptr %10, %4
  br i1 %.not.i.i.i, label %_ZSt8_DestroyIPSt10unique_ptrI9avifImageN2cv12_GLOBAL__N_116AvifImageDeleterEES5_EvT_S7_RSaIT0_E.exitthread-pre-split, label %.lr.ph.i.i.i, !llvm.loop !187

_ZSt8_DestroyIPSt10unique_ptrI9avifImageN2cv12_GLOBAL__N_116AvifImageDeleterEES5_EvT_S7_RSaIT0_E.exitthread-pre-split: ; preds = %_ZSt8_DestroyISt10unique_ptrI9avifImageN2cv12_GLOBAL__N_116AvifImageDeleterEEEvPT_.exit.i.i.i
  %.val.pr = load ptr, ptr %0, align 8, !tbaa !190
  br label %_ZSt8_DestroyIPSt10unique_ptrI9avifImageN2cv12_GLOBAL__N_116AvifImageDeleterEES5_EvT_S7_RSaIT0_E.exit

_ZSt8_DestroyIPSt10unique_ptrI9avifImageN2cv12_GLOBAL__N_116AvifImageDeleterEES5_EvT_S7_RSaIT0_E.exit: ; preds = %_ZSt8_DestroyIPSt10unique_ptrI9avifImageN2cv12_GLOBAL__N_116AvifImageDeleterEES5_EvT_S7_RSaIT0_E.exitthread-pre-split, %1
  %.val = phi ptr [ %.val.pr, %_ZSt8_DestroyIPSt10unique_ptrI9avifImageN2cv12_GLOBAL__N_116AvifImageDeleterEES5_EvT_S7_RSaIT0_E.exitthread-pre-split ], [ %2, %1 ]
  %.not.i.i = icmp eq ptr %.val, null
  br i1 %.not.i.i, label %_ZNSt12_Vector_baseISt10unique_ptrI9avifImageN2cv12_GLOBAL__N_116AvifImageDeleterEESaIS5_EED2Ev.exit, label %11

11:                                               ; preds = %_ZSt8_DestroyIPSt10unique_ptrI9avifImageN2cv12_GLOBAL__N_116AvifImageDeleterEES5_EvT_S7_RSaIT0_E.exit
  tail call void @_ZdlPv(ptr noundef nonnull %.val) #22
  br label %_ZNSt12_Vector_baseISt10unique_ptrI9avifImageN2cv12_GLOBAL__N_116AvifImageDeleterEESaIS5_EED2Ev.exit

_ZNSt12_Vector_baseISt10unique_ptrI9avifImageN2cv12_GLOBAL__N_116AvifImageDeleterEESaIS5_EED2Ev.exit: ; preds = %_ZSt8_DestroyIPSt10unique_ptrI9avifImageN2cv12_GLOBAL__N_116AvifImageDeleterEES5_EvT_S7_RSaIT0_E.exit, %11
  ret void
}